; Function Attrs: mustprogress nounwind willreturn uwtable
define internal fastcc i32 @Mini_AigCreatePo(ptr noundef captures(none) %0, i32 noundef %1) unnamed_addr #5 {
  %3 = getelementptr inbounds nuw i8, ptr %0, i64 4
  %4 = load i32, ptr %3, align 4, !tbaa !13
  %5 = add nsw i32 %4, 2
  %6 = load i32, ptr %0, align 8, !tbaa !44
  %7 = icmp sgt i32 %5, %6
  br i1 %7, label %8, label %.Mini_AigGrow.exit13_crit_edge.i

.Mini_AigGrow.exit13_crit_edge.i:                 ; preds = %2
  %.phi.trans.insert.i = getelementptr inbounds nuw i8, ptr %0, i64 16
  %.pre.i = load ptr, ptr %.phi.trans.insert.i, align 8, !tbaa !3
  br label %Mini_AigPush.exit

8:                                                ; preds = %2
  %9 = icmp slt i32 %6, 255
  br i1 %9, label %10, label %18

10:                                               ; preds = %8
  %11 = getelementptr inbounds nuw i8, ptr %0, i64 16
  %12 = load ptr, ptr %11, align 8, !tbaa !3
  %.not9.i.i = icmp eq ptr %12, null
  br i1 %.not9.i.i, label %15, label %13

13:                                               ; preds = %10
  %14 = tail call dereferenceable_or_null(1020) ptr @realloc(ptr noundef nonnull %12, i64 noundef 1020) #27
  br label %Mini_AigGrow.exit.i

15:                                               ; preds = %10
  %16 = tail call noalias dereferenceable_or_null(1020) ptr @malloc(i64 noundef 1020) #26
  br label %Mini_AigGrow.exit.i

Mini_AigGrow.exit.i:                              ; preds = %15, %13
  %17 = phi ptr [ %14, %13 ], [ %16, %15 ]
  store ptr %17, ptr %11, align 8, !tbaa !3
  store i32 255, ptr %0, align 8, !tbaa !44
  br label %Mini_AigPush.exit

18:                                               ; preds = %8
  %19 = shl nuw nsw i32 %6, 1
  %20 = getelementptr inbounds nuw i8, ptr %0, i64 16
  %21 = load ptr, ptr %20, align 8, !tbaa !3
  %.not9.i12.i = icmp eq ptr %21, null
  %22 = zext nneg i32 %19 to i64
  %23 = shl nuw nsw i64 %22, 2
  br i1 %.not9.i12.i, label %26, label %24

24:                                               ; preds = %18
  %25 = tail call ptr @realloc(ptr noundef nonnull %21, i64 noundef %23) #27
  br label %28

26:                                               ; preds = %18
  %27 = tail call noalias ptr @malloc(i64 noundef %23) #26
  br label %28

28:                                               ; preds = %26, %24
  %29 = phi ptr [ %25, %24 ], [ %27, %26 ]
  store ptr %29, ptr %20, align 8, !tbaa !3
  store i32 %19, ptr %0, align 8, !tbaa !44
  br label %Mini_AigPush.exit

Mini_AigPush.exit:                                ; preds = %.Mini_AigGrow.exit13_crit_edge.i, %Mini_AigGrow.exit.i, %28
  %30 = phi ptr [ %.pre.i, %.Mini_AigGrow.exit13_crit_edge.i ], [ %29, %28 ], [ %17, %Mini_AigGrow.exit.i ]
  %31 = load i32, ptr %3, align 4, !tbaa !13
  %32 = add nsw i32 %31, 1
  store i32 %32, ptr %3, align 4, !tbaa !13
  %33 = sext i32 %31 to i64
  %34 = getelementptr inbounds i32, ptr %30, i64 %33
  store i32 %1, ptr %34, align 4, !tbaa !10
  %35 = load i32, ptr %3, align 4, !tbaa !13
  %36 = add nsw i32 %35, 1
  store i32 %36, ptr %3, align 4, !tbaa !13
  %37 = sext i32 %35 to i64
  %38 = getelementptr inbounds i32, ptr %30, i64 %37
  store i32 2147483647, ptr %38, align 4, !tbaa !10
  ret i32 %4
}